target datalayout = "e-m:e-p270:32:32-p271:32:32-p272:64:64-i64:64-i128:128-f80:128-n8:16:32:64-S128"
target triple = "x86_64-pc-linux-gnu"

%struct.GetBitContext = type { ptr, ptr, i32, i32, i32 }

; Function Attrs: alwaysinline nounwind willreturn memory(none) uwtable
define internal i32 @av_bswap32(i32 noundef %0) #10 {
  %2 = alloca i32, align 4
  store i32 %0, ptr %2, align 4, !tbaa !38
  %3 = load i32, ptr %2, align 4, !tbaa !38
  %4 = shl i32 %3, 8
  %5 = and i32 %4, 65280
  %6 = load i32, ptr %2, align 4, !tbaa !38
  %7 = lshr i32 %6, 8
  %8 = and i32 %7, 255
  %9 = or i32 %5, %8
  %10 = shl i32 %9, 16
  %11 = load i32, ptr %2, align 4, !tbaa !38
  %12 = lshr i32 %11, 16
  %13 = shl i32 %12, 8
  %14 = and i32 %13, 65280
  %15 = load i32, ptr %2, align 4, !tbaa !38
  %16 = lshr i32 %15, 16
  %17 = lshr i32 %16, 8
  %18 = and i32 %17, 255
  %19 = or i32 %14, %18
  %20 = or i32 %10, %19
  ret i32 %20
}

; Function Attrs: inlinehint nounwind uwtable
define internal i32 @get_bits(ptr noundef %0, i32 noundef %1) #6 {
  %3 = alloca ptr, align 8
  %4 = alloca i32, align 4
  %5 = alloca i32, align 4
  %6 = alloca i32, align 4
  %7 = alloca i32, align 4
  %8 = alloca i32, align 4
  store ptr %0, ptr %3, align 8, !tbaa !124
  store i32 %1, ptr %4, align 4, !tbaa !38
  call void @llvm.lifetime.start.p0(i64 4, ptr %5) #11
  call void @llvm.lifetime.start.p0(i64 4, ptr %6) #11
  %9 = load ptr, ptr %3, align 8, !tbaa !124
  %10 = getelementptr inbounds nuw %struct.GetBitContext, ptr %9, i32 0, i32 2
  %11 = load i32, ptr %10, align 8, !tbaa !163
  store i32 %11, ptr %6, align 4, !tbaa !38
  call void @llvm.lifetime.start.p0(i64 4, ptr %7) #11
  call void @llvm.lifetime.start.p0(i64 4, ptr %8) #11
  %12 = load ptr, ptr %3, align 8, !tbaa !124
  %13 = getelementptr inbounds nuw %struct.GetBitContext, ptr %12, i32 0, i32 4
  %14 = load i32, ptr %13, align 8, !tbaa !165
  store i32 %14, ptr %8, align 4, !tbaa !38
  %15 = load ptr, ptr %3, align 8, !tbaa !124
  %16 = getelementptr inbounds nuw %struct.GetBitContext, ptr %15, i32 0, i32 0
  %17 = load ptr, ptr %16, align 8, !tbaa !164
  %18 = load i32, ptr %6, align 4, !tbaa !38
  %19 = lshr i32 %18, 3
  %20 = zext i32 %19 to i64
  %21 = getelementptr inbounds nuw i8, ptr %17, i64 %20
  %22 = load i32, ptr %21, align 1, !tbaa !47
  %23 = call i32 @av_bswap32(i32 noundef %22) #13
  %24 = load i32, ptr %6, align 4, !tbaa !38
  %25 = and i32 %24, 7
  %26 = shl i32 %23, %25
  %27 = lshr i32 %26, 0
  store i32 %27, ptr %7, align 4, !tbaa !38
  %28 = load i32, ptr %7, align 4, !tbaa !38
  %29 = load i32, ptr %4, align 4, !tbaa !38
  %30 = sub nsw i32 32, %29
  %31 = lshr i32 %28, %30
  store i32 %31, ptr %5, align 4, !tbaa !38
  %32 = load i32, ptr %8, align 4, !tbaa !38
  %33 = load i32, ptr %6, align 4, !tbaa !38
  %34 = load i32, ptr %4, align 4, !tbaa !38
  %35 = add i32 %33, %34
  %36 = icmp ugt i32 %32, %35
  br i1 %36, label %37, label %41

37:                                               ; preds = %2
  %38 = load i32, ptr %6, align 4, !tbaa !38
  %39 = load i32, ptr %4, align 4, !tbaa !38
  %40 = add i32 %38, %39
  br label %43

41:                                               ; preds = %2
  %42 = load i32, ptr %8, align 4, !tbaa !38
  br label %43

43:                                               ; preds = %41, %37
  %44 = phi i32 [ %40, %37 ], [ %42, %41 ]
  store i32 %44, ptr %6, align 4, !tbaa !38
  %45 = load i32, ptr %6, align 4, !tbaa !38
  %46 = load ptr, ptr %3, align 8, !tbaa !124
  %47 = getelementptr inbounds nuw %struct.GetBitContext, ptr %46, i32 0, i32 2
  store i32 %45, ptr %47, align 8, !tbaa !163
  %48 = load i32, ptr %5, align 4, !tbaa !38
  call void @llvm.lifetime.end.p0(i64 4, ptr %8) #11
  call void @llvm.lifetime.end.p0(i64 4, ptr %7) #11
  call void @llvm.lifetime.end.p0(i64 4, ptr %6) #11
  call void @llvm.lifetime.end.p0(i64 4, ptr %5) #11
  ret i32 %48
}

; Function Attrs: nounwind uwtable
define internal void @lsp_unquant_high(ptr noundef %0, i32 noundef %1, ptr noundef %2) #1 {
  %4 = alloca ptr, align 8
  %5 = alloca i32, align 4
  %6 = alloca ptr, align 8
  %7 = alloca i32, align 4
  %8 = alloca i32, align 4
  %9 = alloca i32, align 4
  %10 = alloca i32, align 4
  store ptr %0, ptr %4, align 8, !tbaa !75
  store i32 %1, ptr %5, align 4, !tbaa !38
  store ptr %2, ptr %6, align 8, !tbaa !124
  call void @llvm.lifetime.start.p0(i64 4, ptr %7) #11
  call void @llvm.lifetime.start.p0(i64 4, ptr %8) #11
  store i32 0, ptr %8, align 4, !tbaa !38
  br label %11

11:                                               ; preds = %24, %3
  %12 = load i32, ptr %8, align 4, !tbaa !38
  %13 = load i32, ptr %5, align 4, !tbaa !38
  %14 = icmp slt i32 %12, %13
  br i1 %14, label %16, label %15

15:                                               ; preds = %11
  call void @llvm.lifetime.end.p0(i64 4, ptr %8) #11
  br label %27

16:                                               ; preds = %11
  %17 = load i32, ptr %8, align 4, !tbaa !38
  %18 = sitofp i32 %17 to float
  %19 = call nsz float @llvm.fmuladd.f32(float 3.125000e-01, float %18, float 7.500000e-01)
  %20 = load ptr, ptr %4, align 8, !tbaa !75
  %21 = load i32, ptr %8, align 4, !tbaa !38
  %22 = sext i32 %21 to i64
  %23 = getelementptr inbounds float, ptr %20, i64 %22
  store float %19, ptr %23, align 4, !tbaa !64
  br label %24

24:                                               ; preds = %16
  %25 = load i32, ptr %8, align 4, !tbaa !38
  %26 = add nsw i32 %25, 1
  store i32 %26, ptr %8, align 4, !tbaa !38
  br label %11, !llvm.loop !234

27:                                               ; preds = %15
  %28 = load ptr, ptr %6, align 8, !tbaa !124
  %29 = call i32 @get_bits(ptr noundef %28, i32 noundef 6)
  store i32 %29, ptr %7, align 4, !tbaa !38
  call void @llvm.lifetime.start.p0(i64 4, ptr %9) #11
  store i32 0, ptr %9, align 4, !tbaa !38
  br label %30

30:                                               ; preds = %52, %27
  %31 = load i32, ptr %9, align 4, !tbaa !38
  %32 = load i32, ptr %5, align 4, !tbaa !38
  %33 = icmp slt i32 %31, %32
  br i1 %33, label %35, label %34

34:                                               ; preds = %30
  call void @llvm.lifetime.end.p0(i64 4, ptr %9) #11
  br label %55

35:                                               ; preds = %30
  %36 = load i32, ptr %7, align 4, !tbaa !38
  %37 = load i32, ptr %5, align 4, !tbaa !38
  %38 = mul nsw i32 %36, %37
  %39 = load i32, ptr %9, align 4, !tbaa !38
  %40 = add nsw i32 %38, %39
  %41 = sext i32 %40 to i64
  %42 = getelementptr inbounds [512 x i8], ptr @high_lsp_cdbk, i64 0, i64 %41
  %43 = load i8, ptr %42, align 1, !tbaa !47
  %44 = sext i8 %43 to i32
  %45 = sitofp i32 %44 to float
  %46 = load ptr, ptr %4, align 8, !tbaa !75
  %47 = load i32, ptr %9, align 4, !tbaa !38
  %48 = sext i32 %47 to i64
  %49 = getelementptr inbounds float, ptr %46, i64 %48
  %50 = load float, ptr %49, align 4, !tbaa !64
  %51 = call nsz float @llvm.fmuladd.f32(float 3.906250e-03, float %45, float %50)
  store float %51, ptr %49, align 4, !tbaa !64
  br label %52

52:                                               ; preds = %35
  %53 = load i32, ptr %9, align 4, !tbaa !38
  %54 = add nsw i32 %53, 1
  store i32 %54, ptr %9, align 4, !tbaa !38
  br label %30, !llvm.loop !235

55:                                               ; preds = %34
  %56 = load ptr, ptr %6, align 8, !tbaa !124
  %57 = call i32 @get_bits(ptr noundef %56, i32 noundef 6)
  store i32 %57, ptr %7, align 4, !tbaa !38
  call void @llvm.lifetime.start.p0(i64 4, ptr %10) #11
  store i32 0, ptr %10, align 4, !tbaa !38
  br label %58

58:                                               ; preds = %80, %55
  %59 = load i32, ptr %10, align 4, !tbaa !38
  %60 = load i32, ptr %5, align 4, !tbaa !38
  %61 = icmp slt i32 %59, %60
  br i1 %61, label %63, label %62

62:                                               ; preds = %58
  call void @llvm.lifetime.end.p0(i64 4, ptr %10) #11
  br label %83

63:                                               ; preds = %58
  %64 = load i32, ptr %7, align 4, !tbaa !38
  %65 = load i32, ptr %5, align 4, !tbaa !38
  %66 = mul nsw i32 %64, %65
  %67 = load i32, ptr %10, align 4, !tbaa !38
  %68 = add nsw i32 %66, %67
  %69 = sext i32 %68 to i64
  %70 = getelementptr inbounds [512 x i8], ptr @high_lsp_cdbk2, i64 0, i64 %69
  %71 = load i8, ptr %70, align 1, !tbaa !47
  %72 = sext i8 %71 to i32
  %73 = sitofp i32 %72 to float
  %74 = load ptr, ptr %4, align 8, !tbaa !75
  %75 = load i32, ptr %10, align 4, !tbaa !38
  %76 = sext i32 %75 to i64
  %77 = getelementptr inbounds float, ptr %74, i64 %76
  %78 = load float, ptr %77, align 4, !tbaa !64
  %79 = call nsz float @llvm.fmuladd.f32(float 0x3F60000000000000, float %73, float %78)
  store float %79, ptr %77, align 4, !tbaa !64
  br label %80

80:                                               ; preds = %63
  %81 = load i32, ptr %10, align 4, !tbaa !38
  %82 = add nsw i32 %81, 1
  store i32 %82, ptr %10, align 4, !tbaa !38
  br label %58, !llvm.loop !236

83:                                               ; preds = %62
  call void @llvm.lifetime.end.p0(i64 4, ptr %7) #11
  ret void
}