; Function Attrs: nofree norecurse nosync nounwind memory(read, argmem: readwrite, inaccessiblemem: none) uwtable
define internal void @lsp_unquant_high(ptr noundef captures(none) %0, i32 noundef %1, ptr noundef captures(none) %2) #9 {
  %4 = icmp sgt i32 %1, 0
  br i1 %4, label %.lr.ph.preheader, label %._crit_edge

.lr.ph.preheader:                                 ; preds = %3
  %wide.trip.count = zext nneg i32 %1 to i64
  br label %.lr.ph

._crit_edge:                                      ; preds = %.lr.ph, %3
  %5 = getelementptr inbounds nuw i8, ptr %2, i64 16
  %6 = load i32, ptr %5, align 8, !tbaa !94
  %7 = getelementptr inbounds nuw i8, ptr %2, i64 24
  %8 = load i32, ptr %7, align 8, !tbaa !92
  %9 = load ptr, ptr %2, align 8, !tbaa !90
  %10 = lshr i32 %6, 3
  %11 = zext nneg i32 %10 to i64
  %12 = getelementptr inbounds nuw i8, ptr %9, i64 %11
  %13 = load i32, ptr %12, align 1, !tbaa !34
  %14 = add i32 %6, 6
  %15 = tail call i32 @llvm.umin.i32(i32 %8, i32 %14)
  store i32 %15, ptr %5, align 8, !tbaa !94
  br i1 %4, label %.lr.ph29, label %._crit_edge30

.lr.ph29:                                         ; preds = %._crit_edge
  %16 = tail call i32 @llvm.bswap.i32(i32 %13)
  %17 = and i32 %6, 7
  %18 = shl i32 %16, %17
  %19 = lshr i32 %18, 26
  %20 = mul nuw nsw i32 %19, %1
  %21 = zext nneg i32 %20 to i64
  %wide.trip.count39 = zext nneg i32 %1 to i64
  br label %40

.lr.ph:                                           ; preds = %.lr.ph.preheader, %.lr.ph
  %indvars.iv = phi i64 [ 0, %.lr.ph.preheader ], [ %indvars.iv.next, %.lr.ph ]
  %22 = trunc nuw nsw i64 %indvars.iv to i32
  %23 = uitofp nneg i32 %22 to float
  %24 = tail call nsz float @llvm.fmuladd.f32(float %23, float 3.125000e-01, float 7.500000e-01)
  %25 = getelementptr inbounds nuw float, ptr %0, i64 %indvars.iv
  store float %24, ptr %25, align 4, !tbaa !105
  %indvars.iv.next = add nuw nsw i64 %indvars.iv, 1
  %exitcond.not = icmp eq i64 %indvars.iv.next, %wide.trip.count
  br i1 %exitcond.not, label %._crit_edge, label %.lr.ph, !llvm.loop !215

._crit_edge30:                                    ; preds = %._crit_edge
  %26 = add i32 %15, 6
  %27 = tail call i32 @llvm.umin.i32(i32 %8, i32 %26)
  store i32 %27, ptr %5, align 8, !tbaa !94
  br label %._crit_edge34

.lr.ph33:                                         ; preds = %40
  %28 = lshr i32 %15, 3
  %29 = zext nneg i32 %28 to i64
  %30 = getelementptr inbounds nuw i8, ptr %9, i64 %29
  %31 = load i32, ptr %30, align 1, !tbaa !34
  %32 = add i32 %15, 6
  %33 = tail call i32 @llvm.umin.i32(i32 %8, i32 %32)
  store i32 %33, ptr %5, align 8, !tbaa !94
  %34 = tail call i32 @llvm.bswap.i32(i32 %31)
  %35 = and i32 %15, 7
  %36 = shl i32 %34, %35
  %37 = lshr i32 %36, 26
  %38 = mul nuw nsw i32 %37, %1
  %39 = zext nneg i32 %38 to i64
  %wide.trip.count44 = zext nneg i32 %1 to i64
  br label %48

40:                                               ; preds = %.lr.ph29, %40
  %indvars.iv36 = phi i64 [ 0, %.lr.ph29 ], [ %indvars.iv.next37, %40 ]
  %41 = add nuw nsw i64 %indvars.iv36, %21
  %42 = getelementptr inbounds nuw [512 x i8], ptr @high_lsp_cdbk, i64 0, i64 %41
  %43 = load i8, ptr %42, align 1, !tbaa !34
  %44 = sitofp i8 %43 to float
  %45 = getelementptr inbounds nuw float, ptr %0, i64 %indvars.iv36
  %46 = load float, ptr %45, align 4, !tbaa !105
  %47 = tail call nsz float @llvm.fmuladd.f32(float %44, float 3.906250e-03, float %46)
  store float %47, ptr %45, align 4, !tbaa !105
  %indvars.iv.next37 = add nuw nsw i64 %indvars.iv36, 1
  %exitcond40.not = icmp eq i64 %indvars.iv.next37, %wide.trip.count39
  br i1 %exitcond40.not, label %.lr.ph33, label %40, !llvm.loop !216

._crit_edge34:                                    ; preds = %48, %._crit_edge30
  ret void

48:                                               ; preds = %.lr.ph33, %48
  %indvars.iv41 = phi i64 [ 0, %.lr.ph33 ], [ %indvars.iv.next42, %48 ]
  %49 = add nuw nsw i64 %indvars.iv41, %39
  %50 = getelementptr inbounds nuw [512 x i8], ptr @high_lsp_cdbk2, i64 0, i64 %49
  %51 = load i8, ptr %50, align 1, !tbaa !34
  %52 = sitofp i8 %51 to float
  %53 = getelementptr inbounds nuw float, ptr %0, i64 %indvars.iv41
  %54 = load float, ptr %53, align 4, !tbaa !105
  %55 = tail call nsz float @llvm.fmuladd.f32(float %52, float 0x3F60000000000000, float %54)
  store float %55, ptr %53, align 4, !tbaa !105
  %indvars.iv.next42 = add nuw nsw i64 %indvars.iv41, 1
  %exitcond45.not = icmp eq i64 %indvars.iv.next42, %wide.trip.count44
  br i1 %exitcond45.not, label %._crit_edge34, label %48, !llvm.loop !217
}